; Function Attrs: mustprogress uwtable
define internal fastcc void @_ZN5arrow12_GLOBAL__N_119ScalarEqualsVisitor5VisitERKNS_10ListScalarE(ptr dead_on_unwind noalias nonnull writable writeonly align 8 captures(none) initializes((0, 8)) %0, ptr noundef nonnull align 8 dereferenceable(34) %1, ptr %.48.val) unnamed_addr #1 align 2 {
  %3 = alloca %"class.arrow::Status", align 8
  %4 = load ptr, ptr %1, align 8, !tbaa !1011
  %5 = getelementptr inbounds nuw i8, ptr %4, i64 48
  %6 = load ptr, ptr %5, align 8, !tbaa !257
  %7 = getelementptr inbounds nuw i8, ptr %1, i64 32
  %8 = load i8, ptr %7, align 8, !tbaa !117, !range !81, !noundef !82
  call void @llvm.lifetime.start.p0(i64 8, ptr nonnull %3)
  %9 = getelementptr inbounds nuw i8, ptr %.48.val, i64 8
  %10 = load ptr, ptr %9, align 8, !tbaa !32
  %11 = getelementptr inbounds nuw i8, ptr %10, i64 16
  %12 = load i64, ptr %11, align 8, !tbaa !57
  %13 = getelementptr inbounds nuw i8, ptr %6, i64 8
  %14 = load ptr, ptr %13, align 8, !tbaa !32
  %15 = getelementptr inbounds nuw i8, ptr %14, i64 16
  %16 = load i64, ptr %15, align 8, !tbaa !57
  %.not.i = icmp eq i64 %12, %16
  br i1 %.not.i, label %26, label %17

17:                                               ; preds = %2
  %18 = getelementptr inbounds nuw i8, ptr %1, i64 24
  %19 = load ptr, ptr %18, align 8, !tbaa !92
  call fastcc void @_ZN5arrow12_GLOBAL__N_19PrintDiffERKNS_5ArrayES3_llllPSo(ptr dead_on_unwind noalias nonnull writable align 8 %3, ptr noundef nonnull align 8 dereferenceable(32) %.48.val, ptr noundef nonnull align 8 dereferenceable(32) %6, i64 noundef 0, i64 noundef %12, i64 noundef 0, i64 noundef %16, ptr noundef %19)
  %20 = load ptr, ptr %3, align 8, !tbaa !93
  %.not.i.i = icmp eq ptr %20, null
  br i1 %.not.i.i, label %_ZN5arrow12_GLOBAL__N_111ArrayEqualsERKNS_5ArrayES3_RKNS_12EqualOptionsEb.exit, label %21, !prof !96

21:                                               ; preds = %17
  %22 = getelementptr inbounds nuw i8, ptr %20, i64 1
  %23 = load i8, ptr %22, align 1, !tbaa !97, !range !81, !noundef !82
  %24 = trunc nuw i8 %23 to i1
  br i1 %24, label %_ZN5arrow12_GLOBAL__N_111ArrayEqualsERKNS_5ArrayES3_RKNS_12EqualOptionsEb.exit, label %25

25:                                               ; preds = %21
  call void @_ZN5arrow6Status11DeleteStateEv(ptr noundef nonnull align 8 dereferenceable(8) %3) #25
  br label %_ZN5arrow12_GLOBAL__N_111ArrayEqualsERKNS_5ArrayES3_RKNS_12EqualOptionsEb.exit

26:                                               ; preds = %2
  %27 = getelementptr inbounds nuw i8, ptr %1, i64 8
  %28 = trunc nuw i8 %8 to i1
  %29 = tail call fastcc noundef zeroext i1 @_ZN5arrow12_GLOBAL__N_116ArrayRangeEqualsERKNS_5ArrayES3_lllRKNS_12EqualOptionsEb(ptr noundef nonnull align 8 dereferenceable(32) %.48.val, ptr noundef nonnull align 8 dereferenceable(32) %6, i64 noundef 0, i64 noundef %12, i64 noundef 0, ptr noundef nonnull align 8 dereferenceable(24) %27, i1 noundef zeroext %28)
  %30 = zext i1 %29 to i8
  br label %_ZN5arrow12_GLOBAL__N_111ArrayEqualsERKNS_5ArrayES3_RKNS_12EqualOptionsEb.exit

_ZN5arrow12_GLOBAL__N_111ArrayEqualsERKNS_5ArrayES3_RKNS_12EqualOptionsEb.exit: ; preds = %17, %21, %25, %26
  %.0.i = phi i8 [ %30, %26 ], [ 0, %17 ], [ 0, %21 ], [ 0, %25 ]
  call void @llvm.lifetime.end.p0(i64 8, ptr nonnull %3)
  %31 = getelementptr inbounds nuw i8, ptr %1, i64 33
  store i8 %.0.i, ptr %31, align 1, !tbaa !119
  store ptr null, ptr %0, align 8, !tbaa !93, !alias.scope !1033
  ret void
}